target datalayout = "e-m:e-p270:32:32-p271:32:32-p272:64:64-i64:64-i128:128-f80:128-n8:16:32:64-S128"
target triple = "x86_64-pc-linux-gnu"

%struct.bignum_st = type { ptr, i32, i32, i32, i32 }

@ossl_bignum_nist_p_521 = internal constant %struct.bignum_st { ptr @_nist_p_521, i32 9, i32 9, i32 0, i32 2 }, align 8
@BN_nist_mod_521.ossl_bignum_nist_p_521_sqr = internal constant %struct.bignum_st { ptr @_nist_p_521_sqr, i32 17, i32 17, i32 0, i32 2 }, align 8
@_nist_p_521 = internal constant [9 x i64] [i64 -1, i64 -1, i64 -1, i64 -1, i64 -1, i64 -1, i64 -1, i64 -1, i64 511], align 16

; Function Attrs: nounwind uwtable
define internal void @nist_cp_bn(ptr noundef %0, ptr noundef %1, i32 noundef %2) #0 {
  %4 = alloca ptr, align 8
  %5 = alloca ptr, align 8
  %6 = alloca i32, align 4
  %7 = alloca i32, align 4
  store ptr %0, ptr %4, align 8, !tbaa !16
  store ptr %1, ptr %5, align 8, !tbaa !16
  store i32 %2, ptr %6, align 4, !tbaa !14
  call void @llvm.lifetime.start.p0(i64 4, ptr %7) #5
  store i32 0, ptr %7, align 4, !tbaa !14
  br label %8

8:                                                ; preds = %22, %3
  %9 = load i32, ptr %7, align 4, !tbaa !14
  %10 = load i32, ptr %6, align 4, !tbaa !14
  %11 = icmp slt i32 %9, %10
  br i1 %11, label %12, label %25

12:                                               ; preds = %8
  %13 = load ptr, ptr %5, align 8, !tbaa !16
  %14 = load i32, ptr %7, align 4, !tbaa !14
  %15 = sext i32 %14 to i64
  %16 = getelementptr inbounds i64, ptr %13, i64 %15
  %17 = load i64, ptr %16, align 8, !tbaa !17
  %18 = load ptr, ptr %4, align 8, !tbaa !16
  %19 = load i32, ptr %7, align 4, !tbaa !14
  %20 = sext i32 %19 to i64
  %21 = getelementptr inbounds i64, ptr %18, i64 %20
  store i64 %17, ptr %21, align 8, !tbaa !17
  br label %22

22:                                               ; preds = %12
  %23 = load i32, ptr %7, align 4, !tbaa !14
  %24 = add nsw i32 %23, 1
  store i32 %24, ptr %7, align 4, !tbaa !14
  br label %8, !llvm.loop !27

25:                                               ; preds = %8
  call void @llvm.lifetime.end.p0(i64 4, ptr %7) #5
  ret void
}

; Function Attrs: nounwind uwtable
define i32 @BN_nist_mod_521(ptr noundef %0, ptr noundef %1, ptr noundef %2, ptr noundef %3) #0 {
  %5 = alloca i32, align 4
  %6 = alloca ptr, align 8
  %7 = alloca ptr, align 8
  %8 = alloca ptr, align 8
  %9 = alloca ptr, align 8
  %10 = alloca i32, align 4
  %11 = alloca i32, align 4
  %12 = alloca ptr, align 8
  %13 = alloca ptr, align 8
  %14 = alloca [9 x i64], align 16
  %15 = alloca i64, align 8
  %16 = alloca i64, align 8
  %17 = alloca ptr, align 8
  %18 = alloca i32, align 4
  %19 = alloca i32, align 4
  %20 = alloca ptr, align 8
  store ptr %0, ptr %6, align 8, !tbaa !3
  store ptr %1, ptr %7, align 8, !tbaa !3
  store ptr %2, ptr %8, align 8, !tbaa !3
  store ptr %3, ptr %9, align 8, !tbaa !8
  call void @llvm.lifetime.start.p0(i64 4, ptr %10) #5
  %21 = load ptr, ptr %7, align 8, !tbaa !3
  %22 = getelementptr inbounds nuw %struct.bignum_st, ptr %21, i32 0, i32 1
  %23 = load i32, ptr %22, align 8, !tbaa !10
  store i32 %23, ptr %10, align 4, !tbaa !14
  call void @llvm.lifetime.start.p0(i64 4, ptr %11) #5
  call void @llvm.lifetime.start.p0(i64 8, ptr %12) #5
  call void @llvm.lifetime.start.p0(i64 8, ptr %13) #5
  %24 = load ptr, ptr %7, align 8, !tbaa !3
  %25 = getelementptr inbounds nuw %struct.bignum_st, ptr %24, i32 0, i32 0
  %26 = load ptr, ptr %25, align 8, !tbaa !15
  store ptr %26, ptr %13, align 8, !tbaa !16
  call void @llvm.lifetime.start.p0(i64 72, ptr %14) #5
  call void @llvm.lifetime.start.p0(i64 8, ptr %15) #5
  call void @llvm.lifetime.start.p0(i64 8, ptr %16) #5
  call void @llvm.lifetime.start.p0(i64 8, ptr %17) #5
  store ptr @ossl_bignum_nist_p_521, ptr %8, align 8, !tbaa !3
  %27 = load ptr, ptr %7, align 8, !tbaa !3
  %28 = call i32 @BN_is_negative(ptr noundef %27)
  %29 = icmp ne i32 %28, 0
  br i1 %29, label %34, label %30

30:                                               ; preds = %4
  %31 = load ptr, ptr %7, align 8, !tbaa !3
  %32 = call i32 @BN_ucmp(ptr noundef %31, ptr noundef @BN_nist_mod_521.ossl_bignum_nist_p_521_sqr)
  %33 = icmp sge i32 %32, 0
  br i1 %33, label %34, label %40

34:                                               ; preds = %30, %4
  %35 = load ptr, ptr %6, align 8, !tbaa !3
  %36 = load ptr, ptr %7, align 8, !tbaa !3
  %37 = load ptr, ptr %8, align 8, !tbaa !3
  %38 = load ptr, ptr %9, align 8, !tbaa !8
  %39 = call i32 @BN_nnmod(ptr noundef %35, ptr noundef %36, ptr noundef %37, ptr noundef %38)
  store i32 %39, ptr %5, align 4
  store i32 1, ptr %18, align 4
  br label %168

40:                                               ; preds = %30
  %41 = load ptr, ptr %8, align 8, !tbaa !3
  %42 = load ptr, ptr %7, align 8, !tbaa !3
  %43 = call i32 @BN_ucmp(ptr noundef %41, ptr noundef %42)
  store i32 %43, ptr %11, align 4, !tbaa !14
  %44 = load i32, ptr %11, align 4, !tbaa !14
  %45 = icmp eq i32 %44, 0
  br i1 %45, label %46, label %48

46:                                               ; preds = %40
  %47 = load ptr, ptr %6, align 8, !tbaa !3
  call void @BN_zero_ex(ptr noundef %47)
  store i32 1, ptr %5, align 4
  store i32 1, ptr %18, align 4
  br label %168

48:                                               ; preds = %40
  %49 = load i32, ptr %11, align 4, !tbaa !14
  %50 = icmp sgt i32 %49, 0
  br i1 %50, label %51, label %64

51:                                               ; preds = %48
  %52 = load ptr, ptr %6, align 8, !tbaa !3
  %53 = load ptr, ptr %7, align 8, !tbaa !3
  %54 = icmp eq ptr %52, %53
  br i1 %54, label %55, label %56

55:                                               ; preds = %51
  br label %62

56:                                               ; preds = %51
  %57 = load ptr, ptr %6, align 8, !tbaa !3
  %58 = load ptr, ptr %7, align 8, !tbaa !3
  %59 = call ptr @BN_copy(ptr noundef %57, ptr noundef %58)
  %60 = icmp ne ptr %59, null
  %61 = zext i1 %60 to i32
  br label %62

62:                                               ; preds = %56, %55
  %63 = phi i32 [ 1, %55 ], [ %61, %56 ]
  store i32 %63, ptr %5, align 4
  store i32 1, ptr %18, align 4
  br label %168

64:                                               ; preds = %48
  br label %65

65:                                               ; preds = %64
  %66 = load ptr, ptr %6, align 8, !tbaa !3
  %67 = load ptr, ptr %7, align 8, !tbaa !3
  %68 = icmp ne ptr %66, %67
  br i1 %68, label %69, label %80

69:                                               ; preds = %65
  %70 = load ptr, ptr %6, align 8, !tbaa !3
  %71 = call ptr @bn_wexpand(ptr noundef %70, i32 noundef 9)
  %72 = icmp ne ptr %71, null
  br i1 %72, label %74, label %73

73:                                               ; preds = %69
  store i32 0, ptr %5, align 4
  store i32 1, ptr %18, align 4
  br label %168

74:                                               ; preds = %69
  %75 = load ptr, ptr %6, align 8, !tbaa !3
  %76 = getelementptr inbounds nuw %struct.bignum_st, ptr %75, i32 0, i32 0
  %77 = load ptr, ptr %76, align 8, !tbaa !15
  store ptr %77, ptr %12, align 8, !tbaa !16
  %78 = load ptr, ptr %12, align 8, !tbaa !16
  %79 = load ptr, ptr %13, align 8, !tbaa !16
  call void @nist_cp_bn(ptr noundef %78, ptr noundef %79, i32 noundef 9)
  br label %82

80:                                               ; preds = %65
  %81 = load ptr, ptr %13, align 8, !tbaa !16
  store ptr %81, ptr %12, align 8, !tbaa !16
  br label %82

82:                                               ; preds = %80, %74
  call void @llvm.lifetime.start.p0(i64 4, ptr %19) #5
  call void @llvm.lifetime.start.p0(i64 8, ptr %20) #5
  %83 = load ptr, ptr %13, align 8, !tbaa !16
  %84 = getelementptr inbounds i64, ptr %83, i64 8
  store ptr %84, ptr %20, align 8, !tbaa !16
  store i32 0, ptr %19, align 4, !tbaa !14
  br label %85

85:                                               ; preds = %99, %82
  %86 = load i32, ptr %19, align 4, !tbaa !14
  %87 = load i32, ptr %10, align 4, !tbaa !14
  %88 = sub nsw i32 %87, 8
  %89 = icmp slt i32 %86, %88
  br i1 %89, label %90, label %102

90:                                               ; preds = %85
  %91 = load ptr, ptr %20, align 8, !tbaa !16
  %92 = load i32, ptr %19, align 4, !tbaa !14
  %93 = sext i32 %92 to i64
  %94 = getelementptr inbounds i64, ptr %91, i64 %93
  %95 = load i64, ptr %94, align 8, !tbaa !17
  %96 = load i32, ptr %19, align 4, !tbaa !14
  %97 = sext i32 %96 to i64
  %98 = getelementptr inbounds [9 x i64], ptr %14, i64 0, i64 %97
  store i64 %95, ptr %98, align 8, !tbaa !17
  br label %99

99:                                               ; preds = %90
  %100 = load i32, ptr %19, align 4, !tbaa !14
  %101 = add nsw i32 %100, 1
  store i32 %101, ptr %19, align 4, !tbaa !14
  br label %85, !llvm.loop !35

102:                                              ; preds = %85
  br label %103

103:                                              ; preds = %110, %102
  %104 = load i32, ptr %19, align 4, !tbaa !14
  %105 = icmp slt i32 %104, 9
  br i1 %105, label %106, label %113

106:                                              ; preds = %103
  %107 = load i32, ptr %19, align 4, !tbaa !14
  %108 = sext i32 %107 to i64
  %109 = getelementptr inbounds [9 x i64], ptr %14, i64 0, i64 %108
  store i64 0, ptr %109, align 8, !tbaa !17
  br label %110

110:                                              ; preds = %106
  %111 = load i32, ptr %19, align 4, !tbaa !14
  %112 = add nsw i32 %111, 1
  store i32 %112, ptr %19, align 4, !tbaa !14
  br label %103, !llvm.loop !36

113:                                              ; preds = %103
  call void @llvm.lifetime.end.p0(i64 8, ptr %20) #5
  call void @llvm.lifetime.end.p0(i64 4, ptr %19) #5
  %114 = getelementptr inbounds [9 x i64], ptr %14, i64 0, i64 0
  %115 = load i64, ptr %114, align 16, !tbaa !17
  store i64 %115, ptr %15, align 8, !tbaa !17
  store i32 0, ptr %11, align 4, !tbaa !14
  br label %116

116:                                              ; preds = %134, %113
  %117 = load i32, ptr %11, align 4, !tbaa !14
  %118 = icmp slt i32 %117, 8
  br i1 %118, label %119, label %137

119:                                              ; preds = %116
  %120 = load i64, ptr %15, align 8, !tbaa !17
  %121 = lshr i64 %120, 9
  %122 = load i32, ptr %11, align 4, !tbaa !14
  %123 = add nsw i32 %122, 1
  %124 = sext i32 %123 to i64
  %125 = getelementptr inbounds [9 x i64], ptr %14, i64 0, i64 %124
  %126 = load i64, ptr %125, align 8, !tbaa !17
  store i64 %126, ptr %16, align 8, !tbaa !17
  %127 = shl i64 %126, 55
  %128 = or i64 %121, %127
  %129 = and i64 %128, -1
  %130 = load i32, ptr %11, align 4, !tbaa !14
  %131 = sext i32 %130 to i64
  %132 = getelementptr inbounds [9 x i64], ptr %14, i64 0, i64 %131
  store i64 %129, ptr %132, align 8, !tbaa !17
  %133 = load i64, ptr %16, align 8, !tbaa !17
  store i64 %133, ptr %15, align 8, !tbaa !17
  br label %134

134:                                              ; preds = %119
  %135 = load i32, ptr %11, align 4, !tbaa !14
  %136 = add nsw i32 %135, 1
  store i32 %136, ptr %11, align 4, !tbaa !14
  br label %116, !llvm.loop !37

137:                                              ; preds = %116
  %138 = load i64, ptr %15, align 8, !tbaa !17
  %139 = lshr i64 %138, 9
  %140 = load i32, ptr %11, align 4, !tbaa !14
  %141 = sext i32 %140 to i64
  %142 = getelementptr inbounds [9 x i64], ptr %14, i64 0, i64 %141
  store i64 %139, ptr %142, align 8, !tbaa !17
  %143 = load ptr, ptr %12, align 8, !tbaa !16
  %144 = load i32, ptr %11, align 4, !tbaa !14
  %145 = sext i32 %144 to i64
  %146 = getelementptr inbounds i64, ptr %143, i64 %145
  %147 = load i64, ptr %146, align 8, !tbaa !17
  %148 = and i64 %147, 511
  store i64 %148, ptr %146, align 8, !tbaa !17
  %149 = load ptr, ptr %12, align 8, !tbaa !16
  %150 = load ptr, ptr %12, align 8, !tbaa !16
  %151 = getelementptr inbounds [9 x i64], ptr %14, i64 0, i64 0
  %152 = call i64 @bn_add_words(ptr noundef %149, ptr noundef %150, ptr noundef %151, i32 noundef 9)
  %153 = getelementptr inbounds [9 x i64], ptr %14, i64 0, i64 0
  %154 = load ptr, ptr %12, align 8, !tbaa !16
  %155 = call i64 @bn_sub_words(ptr noundef %153, ptr noundef %154, ptr noundef @_nist_p_521, i32 noundef 9)
  %156 = icmp ne i64 %155, 0
  br i1 %156, label %157, label %159

157:                                              ; preds = %137
  %158 = load ptr, ptr %12, align 8, !tbaa !16
  br label %161

159:                                              ; preds = %137
  %160 = getelementptr inbounds [9 x i64], ptr %14, i64 0, i64 0
  br label %161

161:                                              ; preds = %159, %157
  %162 = phi ptr [ %158, %157 ], [ %160, %159 ]
  store ptr %162, ptr %17, align 8, !tbaa !16
  %163 = load ptr, ptr %12, align 8, !tbaa !16
  %164 = load ptr, ptr %17, align 8, !tbaa !16
  call void @nist_cp_bn(ptr noundef %163, ptr noundef %164, i32 noundef 9)
  %165 = load ptr, ptr %6, align 8, !tbaa !3
  %166 = getelementptr inbounds nuw %struct.bignum_st, ptr %165, i32 0, i32 1
  store i32 9, ptr %166, align 8, !tbaa !10
  %167 = load ptr, ptr %6, align 8, !tbaa !3
  call void @bn_correct_top(ptr noundef %167)
  store i32 1, ptr %5, align 4
  store i32 1, ptr %18, align 4
  br label %168

168:                                              ; preds = %161, %73, %62, %46, %34
  call void @llvm.lifetime.end.p0(i64 8, ptr %17) #5
  call void @llvm.lifetime.end.p0(i64 8, ptr %16) #5
  call void @llvm.lifetime.end.p0(i64 8, ptr %15) #5
  call void @llvm.lifetime.end.p0(i64 72, ptr %14) #5
  call void @llvm.lifetime.end.p0(i64 8, ptr %13) #5
  call void @llvm.lifetime.end.p0(i64 8, ptr %12) #5
  call void @llvm.lifetime.end.p0(i64 4, ptr %11) #5
  call void @llvm.lifetime.end.p0(i64 4, ptr %10) #5
  %169 = load i32, ptr %5, align 4
  ret i32 %169
}