; Function Attrs: nounwind uwtable
define i32 @BN_nist_mod_521(ptr noundef %0, ptr noundef %1, ptr readnone captures(none) %2, ptr noundef %3) #1 {
  %5 = alloca [9 x i64], align 16
  %6 = getelementptr inbounds nuw i8, ptr %1, i64 8
  %7 = load i32, ptr %6, align 8, !tbaa !3
  %8 = load ptr, ptr %1, align 8, !tbaa !10
  call void @llvm.lifetime.start.p0(i64 72, ptr nonnull %5) #7
  %9 = tail call i32 @BN_is_negative(ptr noundef nonnull %1) #7
  %.not = icmp eq i32 %9, 0
  br i1 %.not, label %10, label %13

10:                                               ; preds = %4
  %11 = tail call i32 @BN_ucmp(ptr noundef nonnull %1, ptr noundef nonnull @BN_nist_mod_521.ossl_bignum_nist_p_521_sqr) #7
  %12 = icmp sgt i32 %11, -1
  br i1 %12, label %13, label %15

13:                                               ; preds = %10, %4
  %14 = tail call i32 @BN_nnmod(ptr noundef %0, ptr noundef nonnull %1, ptr noundef nonnull @ossl_bignum_nist_p_521, ptr noundef %3) #7
  br label %67

15:                                               ; preds = %10
  %16 = tail call i32 @BN_ucmp(ptr noundef nonnull @ossl_bignum_nist_p_521, ptr noundef nonnull %1) #7
  %17 = icmp eq i32 %16, 0
  br i1 %17, label %18, label %19

18:                                               ; preds = %15
  tail call void @BN_zero_ex(ptr noundef %0) #7
  br label %67

19:                                               ; preds = %15
  %20 = icmp sgt i32 %16, 0
  %21 = icmp eq ptr %0, %1
  br i1 %20, label %22, label %27

22:                                               ; preds = %19
  br i1 %21, label %67, label %23

23:                                               ; preds = %22
  %24 = tail call ptr @BN_copy(ptr noundef %0, ptr noundef nonnull %1) #7
  %25 = icmp ne ptr %24, null
  %26 = zext i1 %25 to i32
  br label %67

27:                                               ; preds = %19
  br i1 %21, label %nist_cp_bn.exit, label %28

28:                                               ; preds = %27
  %29 = tail call ptr @bn_wexpand(ptr noundef %0, i32 noundef 9) #7
  %.not61 = icmp eq ptr %29, null
  br i1 %.not61, label %67, label %30

30:                                               ; preds = %28
  %31 = load ptr, ptr %0, align 8, !tbaa !10
  br label %32

32:                                               ; preds = %32, %30
  %indvars.iv.i = phi i64 [ 0, %30 ], [ %indvars.iv.next.i, %32 ]
  %33 = getelementptr inbounds nuw i64, ptr %8, i64 %indvars.iv.i
  %34 = load i64, ptr %33, align 8, !tbaa !11
  %35 = getelementptr inbounds nuw i64, ptr %31, i64 %indvars.iv.i
  store i64 %34, ptr %35, align 8, !tbaa !11
  %indvars.iv.next.i = add nuw nsw i64 %indvars.iv.i, 1
  %exitcond.not.i = icmp eq i64 %indvars.iv.next.i, 9
  br i1 %exitcond.not.i, label %nist_cp_bn.exit, label %32, !llvm.loop !13

nist_cp_bn.exit:                                  ; preds = %32, %27
  %.055 = phi ptr [ %8, %27 ], [ %31, %32 ]
  %36 = getelementptr inbounds nuw i8, ptr %8, i64 64
  %37 = add i32 %7, -8
  %38 = icmp sgt i32 %7, 8
  br i1 %38, label %.lr.ph.preheader, label %.lr.ph69.preheader

.lr.ph.preheader:                                 ; preds = %nist_cp_bn.exit
  %wide.trip.count = zext nneg i32 %37 to i64
  br label %.lr.ph

.preheader:                                       ; preds = %.lr.ph
  %39 = icmp samesign ult i32 %37, 9
  br i1 %39, label %.lr.ph69.preheader, label %._crit_edge

.lr.ph69.preheader:                               ; preds = %nist_cp_bn.exit, %.preheader
  %.052.lcssa83 = phi i32 [ %37, %.preheader ], [ 0, %nist_cp_bn.exit ]
  %40 = shl nuw nsw i32 %.052.lcssa83, 3
  %41 = zext nneg i32 %40 to i64
  %scevgep = getelementptr i8, ptr %5, i64 %41
  %42 = shl nuw nsw i32 %.052.lcssa83, 3
  %narrow = sub nsw i32 72, %42
  %43 = zext i32 %narrow to i64
  call void @llvm.memset.p0.i64(ptr noundef nonnull align 8 dereferenceable(1) %scevgep, i8 0, i64 %43, i1 false), !tbaa !11
  br label %._crit_edge

.lr.ph:                                           ; preds = %.lr.ph.preheader, %.lr.ph
  %indvars.iv = phi i64 [ 0, %.lr.ph.preheader ], [ %indvars.iv.next, %.lr.ph ]
  %44 = getelementptr inbounds nuw i64, ptr %36, i64 %indvars.iv
  %45 = load i64, ptr %44, align 8, !tbaa !11
  %46 = getelementptr inbounds nuw [9 x i64], ptr %5, i64 0, i64 %indvars.iv
  store i64 %45, ptr %46, align 8, !tbaa !11
  %indvars.iv.next = add nuw nsw i64 %indvars.iv, 1
  %exitcond.not = icmp eq i64 %indvars.iv.next, %wide.trip.count
  br i1 %exitcond.not, label %.preheader, label %.lr.ph, !llvm.loop !19

._crit_edge:                                      ; preds = %.lr.ph69.preheader, %.preheader
  %47 = load i64, ptr %5, align 16, !tbaa !11
  br label %48

48:                                               ; preds = %._crit_edge, %48
  %indvars.iv78 = phi i64 [ 0, %._crit_edge ], [ %indvars.iv.next79, %48 ]
  %.05470 = phi i64 [ %47, %._crit_edge ], [ %50, %48 ]
  %indvars.iv.next79 = add nuw nsw i64 %indvars.iv78, 1
  %49 = getelementptr inbounds nuw [9 x i64], ptr %5, i64 0, i64 %indvars.iv.next79
  %50 = load i64, ptr %49, align 8, !tbaa !11
  %51 = tail call i64 @llvm.fshl.i64(i64 %50, i64 %.05470, i64 55)
  %52 = getelementptr inbounds nuw [9 x i64], ptr %5, i64 0, i64 %indvars.iv78
  store i64 %51, ptr %52, align 8, !tbaa !11
  %exitcond81.not = icmp eq i64 %indvars.iv.next79, 8
  br i1 %exitcond81.not, label %53, label %48, !llvm.loop !20

53:                                               ; preds = %48
  %54 = lshr i64 %50, 9
  %55 = getelementptr inbounds nuw i8, ptr %5, i64 64
  store i64 %54, ptr %55, align 16, !tbaa !11
  %56 = getelementptr inbounds nuw i8, ptr %.055, i64 64
  %57 = load i64, ptr %56, align 8, !tbaa !11
  %58 = and i64 %57, 511
  store i64 %58, ptr %56, align 8, !tbaa !11
  %59 = call i64 @bn_add_words(ptr noundef %.055, ptr noundef %.055, ptr noundef nonnull %5, i32 noundef 9) #7
  %60 = call i64 @bn_sub_words(ptr noundef nonnull %5, ptr noundef %.055, ptr noundef nonnull @_nist_p_521, i32 noundef 9) #7
  %.not62 = icmp eq i64 %60, 0
  %61 = select i1 %.not62, ptr %5, ptr %.055
  br label %62

62:                                               ; preds = %62, %53
  %indvars.iv.i63 = phi i64 [ 0, %53 ], [ %indvars.iv.next.i64, %62 ]
  %63 = getelementptr inbounds nuw i64, ptr %61, i64 %indvars.iv.i63
  %64 = load i64, ptr %63, align 8, !tbaa !11
  %65 = getelementptr inbounds nuw i64, ptr %.055, i64 %indvars.iv.i63
  store i64 %64, ptr %65, align 8, !tbaa !11
  %indvars.iv.next.i64 = add nuw nsw i64 %indvars.iv.i63, 1
  %exitcond.not.i65 = icmp eq i64 %indvars.iv.next.i64, 9
  br i1 %exitcond.not.i65, label %nist_cp_bn.exit66, label %62, !llvm.loop !13

nist_cp_bn.exit66:                                ; preds = %62
  %66 = getelementptr inbounds nuw i8, ptr %0, i64 8
  store i32 9, ptr %66, align 8, !tbaa !3
  call void @bn_correct_top(ptr noundef %0) #7
  br label %67

67:                                               ; preds = %28, %23, %22, %nist_cp_bn.exit66, %18, %13
  %.0 = phi i32 [ %14, %13 ], [ 1, %18 ], [ 1, %nist_cp_bn.exit66 ], [ %26, %23 ], [ 1, %22 ], [ 0, %28 ]
  call void @llvm.lifetime.end.p0(i64 72, ptr nonnull %5) #7
  ret i32 %.0
}